; Function Attrs: nounwind uwtable
define internal i64 @fake_now_cb(ptr readnone captures(none) %0) #0 {
  %2 = load ptr, ptr @fake_now_lock, align 8, !tbaa !42
  %3 = tail call i32 @CRYPTO_THREAD_read_lock(ptr noundef %2) #10
  %.not.i = icmp eq i32 %3, 0
  br i1 %.not.i, label %qtest_get_time.exit, label %4

4:                                                ; preds = %1
  %.sroa.0.0.copyload.i = load i64, ptr @fake_now.0, align 8, !tbaa !46
  %5 = load ptr, ptr @fake_now_lock, align 8, !tbaa !42
  %6 = tail call i32 @CRYPTO_THREAD_unlock(ptr noundef %5) #10
  br label %qtest_get_time.exit

qtest_get_time.exit:                              ; preds = %1, %4
  %.sroa.02.0.i = phi i64 [ %.sroa.0.0.copyload.i, %4 ], [ 0, %1 ]
  ret i64 %.sroa.02.0.i
}